; Function Attrs: nounwind uwtable
define hidden ptr @SDL_GetGPUDeviceDriver_REAL(ptr noundef readonly captures(address_is_null) %0) local_unnamed_addr #0 {
  %2 = icmp eq ptr %0, null
  br i1 %2, label %3, label %5

3:                                                ; preds = %1
  %4 = tail call zeroext i1 (ptr, ...) @SDL_SetError_REAL(ptr noundef nonnull @.str.3) #7
  br label %8

5:                                                ; preds = %1
  %6 = getelementptr inbounds nuw i8, ptr %0, i64 672
  %7 = load ptr, ptr %6, align 8
  br label %8

8:                                                ; preds = %5, %3
  %.0 = phi ptr [ null, %3 ], [ %7, %5 ]
  ret ptr %.0
}